target datalayout = "e-m:e-p270:32:32-p271:32:32-p272:64:64-i64:64-i128:128-f80:128-n8:16:32:64-S128"
target triple = "x86_64-pc-linux-gnu"

%struct.expert_field = type { i32, i32 }
%struct._diam_sub_dis_t = type { i32, i32, i32, i8, i32, ptr, ptr, i32, i32, i8 }

@hf_diameter_user_equipment_info_imeisv = internal global i32 0, align 4
@hf_diameter_user_equipment_info_mac = internal global i32 0, align 4
@hf_diameter_user_equipment_info_eui64 = internal global i32 0, align 4
@hf_diameter_user_equipment_info_modified_eui64 = internal global i32 0, align 4
@ei_diameter_invalid_user_equipment_info_value_len = internal global %struct.expert_field zeroinitializer, align 4
@ei_diameter_unexpected_imei_as_user_equipment_info = internal global %struct.expert_field zeroinitializer, align 4

; Function Attrs: null_pointer_is_valid sspstrong uwtable
define internal i32 @dissect_diameter_user_equipment_info_value(ptr noundef %0, ptr noundef %1, ptr noundef %2, ptr noundef %3) #0 {
  %5 = alloca i32, align 4
  %6 = alloca ptr, align 8
  %7 = alloca ptr, align 8
  %8 = alloca ptr, align 8
  %9 = alloca ptr, align 8
  %10 = alloca i32, align 4
  %11 = alloca ptr, align 8
  %12 = alloca i32, align 4
  %13 = alloca i32, align 4
  store ptr %0, ptr %6, align 8
  store ptr %1, ptr %7, align 8
  store ptr %2, ptr %8, align 8
  store ptr %3, ptr %9, align 8
  call void @llvm.lifetime.start.p0(i64 4, ptr %10) #14
  call void @llvm.lifetime.start.p0(i64 8, ptr %11) #14
  %14 = load ptr, ptr %9, align 8
  store ptr %14, ptr %11, align 8
  call void @llvm.lifetime.start.p0(i64 4, ptr %12) #14
  %15 = load ptr, ptr %11, align 8
  %16 = getelementptr inbounds nuw %struct._diam_sub_dis_t, ptr %15, i32 0, i32 8
  %17 = load i32, ptr %16, align 4
  store i32 %17, ptr %12, align 4
  %18 = load i32, ptr %12, align 4
  switch i32 %18, label %118 [
    i32 0, label %19
    i32 1, label %64
    i32 2, label %82
    i32 3, label %100
  ]

19:                                               ; preds = %4
  %20 = load ptr, ptr %6, align 8
  %21 = call i32 @tvb_reported_length(ptr noundef %20)
  store i32 %21, ptr %10, align 4
  %22 = load i32, ptr %10, align 4
  %23 = icmp eq i32 %22, 8
  br i1 %23, label %24, label %31

24:                                               ; preds = %19
  %25 = load ptr, ptr %8, align 8
  %26 = load i32, ptr @hf_diameter_user_equipment_info_imeisv, align 4
  %27 = load ptr, ptr %6, align 8
  %28 = load i32, ptr %10, align 4
  %29 = call ptr @proto_tree_add_item(ptr noundef %25, i32 noundef %26, ptr noundef %27, i32 noundef 0, i32 noundef %28, i32 noundef -2147483580)
  %30 = load i32, ptr %10, align 4
  store i32 %30, ptr %5, align 4
  store i32 1, ptr %13, align 4
  br label %119

31:                                               ; preds = %19
  %32 = load i32, ptr %10, align 4
  %33 = icmp eq i32 %32, 16
  br i1 %33, label %34, label %41

34:                                               ; preds = %31
  %35 = load ptr, ptr %8, align 8
  %36 = load i32, ptr @hf_diameter_user_equipment_info_imeisv, align 4
  %37 = load ptr, ptr %6, align 8
  %38 = load i32, ptr %10, align 4
  %39 = call ptr @proto_tree_add_item(ptr noundef %35, i32 noundef %36, ptr noundef %37, i32 noundef 0, i32 noundef %38, i32 noundef 0)
  %40 = load i32, ptr %10, align 4
  store i32 %40, ptr %5, align 4
  store i32 1, ptr %13, align 4
  br label %119

41:                                               ; preds = %31
  %42 = load i32, ptr %10, align 4
  %43 = icmp eq i32 %42, 15
  br i1 %43, label %44, label %56

44:                                               ; preds = %41
  %45 = load ptr, ptr %8, align 8
  %46 = load i32, ptr @hf_diameter_user_equipment_info_imeisv, align 4
  %47 = load ptr, ptr %6, align 8
  %48 = load i32, ptr %10, align 4
  %49 = call ptr @proto_tree_add_item(ptr noundef %45, i32 noundef %46, ptr noundef %47, i32 noundef 0, i32 noundef %48, i32 noundef 0)
  %50 = load ptr, ptr %8, align 8
  %51 = load ptr, ptr %7, align 8
  %52 = load ptr, ptr %6, align 8
  %53 = load i32, ptr %10, align 4
  %54 = call ptr @proto_tree_add_expert(ptr noundef %50, ptr noundef %51, ptr noundef @ei_diameter_unexpected_imei_as_user_equipment_info, ptr noundef %52, i32 noundef 0, i32 noundef %53)
  %55 = load i32, ptr %10, align 4
  store i32 %55, ptr %5, align 4
  store i32 1, ptr %13, align 4
  br label %119

56:                                               ; preds = %41
  br label %57

57:                                               ; preds = %56
  br label %58

58:                                               ; preds = %57
  %59 = load ptr, ptr %8, align 8
  %60 = load ptr, ptr %7, align 8
  %61 = load ptr, ptr %6, align 8
  %62 = load i32, ptr %10, align 4
  %63 = call ptr @proto_tree_add_expert(ptr noundef %59, ptr noundef %60, ptr noundef @ei_diameter_invalid_user_equipment_info_value_len, ptr noundef %61, i32 noundef 0, i32 noundef %62)
  br label %118

64:                                               ; preds = %4
  %65 = load ptr, ptr %6, align 8
  %66 = call i32 @tvb_reported_length(ptr noundef %65)
  store i32 %66, ptr %10, align 4
  %67 = load i32, ptr %10, align 4
  %68 = icmp eq i32 %67, 6
  br i1 %68, label %69, label %76

69:                                               ; preds = %64
  %70 = load ptr, ptr %8, align 8
  %71 = load i32, ptr @hf_diameter_user_equipment_info_mac, align 4
  %72 = load ptr, ptr %6, align 8
  %73 = load i32, ptr %10, align 4
  %74 = call ptr @proto_tree_add_item(ptr noundef %70, i32 noundef %71, ptr noundef %72, i32 noundef 0, i32 noundef %73, i32 noundef 0)
  %75 = load i32, ptr %10, align 4
  store i32 %75, ptr %5, align 4
  store i32 1, ptr %13, align 4
  br label %119

76:                                               ; preds = %64
  %77 = load ptr, ptr %8, align 8
  %78 = load ptr, ptr %7, align 8
  %79 = load ptr, ptr %6, align 8
  %80 = load i32, ptr %10, align 4
  %81 = call ptr @proto_tree_add_expert(ptr noundef %77, ptr noundef %78, ptr noundef @ei_diameter_invalid_user_equipment_info_value_len, ptr noundef %79, i32 noundef 0, i32 noundef %80)
  br label %118

82:                                               ; preds = %4
  %83 = load ptr, ptr %6, align 8
  %84 = call i32 @tvb_reported_length(ptr noundef %83)
  store i32 %84, ptr %10, align 4
  %85 = load i32, ptr %10, align 4
  %86 = icmp eq i32 %85, 8
  br i1 %86, label %87, label %94

87:                                               ; preds = %82
  %88 = load ptr, ptr %8, align 8
  %89 = load i32, ptr @hf_diameter_user_equipment_info_eui64, align 4
  %90 = load ptr, ptr %6, align 8
  %91 = load i32, ptr %10, align 4
  %92 = call ptr @proto_tree_add_item(ptr noundef %88, i32 noundef %89, ptr noundef %90, i32 noundef 0, i32 noundef %91, i32 noundef 0)
  %93 = load i32, ptr %10, align 4
  store i32 %93, ptr %5, align 4
  store i32 1, ptr %13, align 4
  br label %119

94:                                               ; preds = %82
  %95 = load ptr, ptr %8, align 8
  %96 = load ptr, ptr %7, align 8
  %97 = load ptr, ptr %6, align 8
  %98 = load i32, ptr %10, align 4
  %99 = call ptr @proto_tree_add_expert(ptr noundef %95, ptr noundef %96, ptr noundef @ei_diameter_invalid_user_equipment_info_value_len, ptr noundef %97, i32 noundef 0, i32 noundef %98)
  br label %118

100:                                              ; preds = %4
  %101 = load ptr, ptr %6, align 8
  %102 = call i32 @tvb_reported_length(ptr noundef %101)
  store i32 %102, ptr %10, align 4
  %103 = load i32, ptr %10, align 4
  %104 = icmp eq i32 %103, 8
  br i1 %104, label %105, label %112

105:                                              ; preds = %100
  %106 = load ptr, ptr %8, align 8
  %107 = load i32, ptr @hf_diameter_user_equipment_info_modified_eui64, align 4
  %108 = load ptr, ptr %6, align 8
  %109 = load i32, ptr %10, align 4
  %110 = call ptr @proto_tree_add_item(ptr noundef %106, i32 noundef %107, ptr noundef %108, i32 noundef 0, i32 noundef %109, i32 noundef 0)
  %111 = load i32, ptr %10, align 4
  store i32 %111, ptr %5, align 4
  store i32 1, ptr %13, align 4
  br label %119

112:                                              ; preds = %100
  %113 = load ptr, ptr %8, align 8
  %114 = load ptr, ptr %7, align 8
  %115 = load ptr, ptr %6, align 8
  %116 = load i32, ptr %10, align 4
  %117 = call ptr @proto_tree_add_expert(ptr noundef %113, ptr noundef %114, ptr noundef @ei_diameter_invalid_user_equipment_info_value_len, ptr noundef %115, i32 noundef 0, i32 noundef %116)
  br label %118

118:                                              ; preds = %4, %112, %94, %76, %58
  store i32 0, ptr %5, align 4
  store i32 1, ptr %13, align 4
  br label %119

119:                                              ; preds = %118, %105, %87, %69, %44, %34, %24
  call void @llvm.lifetime.end.p0(i64 4, ptr %12) #14
  call void @llvm.lifetime.end.p0(i64 8, ptr %11) #14
  call void @llvm.lifetime.end.p0(i64 4, ptr %10) #14
  %120 = load i32, ptr %5, align 4
  ret i32 %120
}