; Function Attrs: null_pointer_is_valid sspstrong uwtable
define internal range(i32 0, 17) i32 @dissect_diameter_user_equipment_info_value(ptr noundef %0, ptr noundef %1, ptr noundef %2, ptr noundef readonly captures(none) %3) #0 {
  %5 = getelementptr inbounds nuw i8, ptr %3, i64 44
  %6 = load i32, ptr %5, align 4
  switch i32 %6, label %45 [
    i32 0, label %7
    i32 1, label %21
    i32 2, label %29
    i32 3, label %37
  ]

7:                                                ; preds = %4
  %8 = tail call i32 @tvb_reported_length(ptr noundef %0)
  switch i32 %8, label %19 [
    i32 8, label %9
    i32 16, label %12
    i32 15, label %15
  ]

9:                                                ; preds = %7
  %10 = load i32, ptr @hf_diameter_user_equipment_info_imeisv, align 4
  %11 = tail call ptr @proto_tree_add_item(ptr noundef %2, i32 noundef %10, ptr noundef %0, i32 noundef 0, i32 noundef 8, i32 noundef -2147483580)
  br label %45

12:                                               ; preds = %7
  %13 = load i32, ptr @hf_diameter_user_equipment_info_imeisv, align 4
  %14 = tail call ptr @proto_tree_add_item(ptr noundef %2, i32 noundef %13, ptr noundef %0, i32 noundef 0, i32 noundef 16, i32 noundef 0)
  br label %45

15:                                               ; preds = %7
  %16 = load i32, ptr @hf_diameter_user_equipment_info_imeisv, align 4
  %17 = tail call ptr @proto_tree_add_item(ptr noundef %2, i32 noundef %16, ptr noundef %0, i32 noundef 0, i32 noundef 15, i32 noundef 0)
  %18 = tail call ptr @proto_tree_add_expert(ptr noundef %2, ptr noundef %1, ptr noundef nonnull @ei_diameter_unexpected_imei_as_user_equipment_info, ptr noundef %0, i32 noundef 0, i32 noundef 15)
  br label %45

19:                                               ; preds = %7
  %20 = tail call ptr @proto_tree_add_expert(ptr noundef %2, ptr noundef %1, ptr noundef nonnull @ei_diameter_invalid_user_equipment_info_value_len, ptr noundef %0, i32 noundef 0, i32 noundef %8)
  br label %45

21:                                               ; preds = %4
  %22 = tail call i32 @tvb_reported_length(ptr noundef %0)
  %23 = icmp eq i32 %22, 6
  br i1 %23, label %24, label %27

24:                                               ; preds = %21
  %25 = load i32, ptr @hf_diameter_user_equipment_info_mac, align 4
  %26 = tail call ptr @proto_tree_add_item(ptr noundef %2, i32 noundef %25, ptr noundef %0, i32 noundef 0, i32 noundef 6, i32 noundef 0)
  br label %45

27:                                               ; preds = %21
  %28 = tail call ptr @proto_tree_add_expert(ptr noundef %2, ptr noundef %1, ptr noundef nonnull @ei_diameter_invalid_user_equipment_info_value_len, ptr noundef %0, i32 noundef 0, i32 noundef %22)
  br label %45

29:                                               ; preds = %4
  %30 = tail call i32 @tvb_reported_length(ptr noundef %0)
  %31 = icmp eq i32 %30, 8
  br i1 %31, label %32, label %35

32:                                               ; preds = %29
  %33 = load i32, ptr @hf_diameter_user_equipment_info_eui64, align 4
  %34 = tail call ptr @proto_tree_add_item(ptr noundef %2, i32 noundef %33, ptr noundef %0, i32 noundef 0, i32 noundef 8, i32 noundef 0)
  br label %45

35:                                               ; preds = %29
  %36 = tail call ptr @proto_tree_add_expert(ptr noundef %2, ptr noundef %1, ptr noundef nonnull @ei_diameter_invalid_user_equipment_info_value_len, ptr noundef %0, i32 noundef 0, i32 noundef %30)
  br label %45

37:                                               ; preds = %4
  %38 = tail call i32 @tvb_reported_length(ptr noundef %0)
  %39 = icmp eq i32 %38, 8
  br i1 %39, label %40, label %43

40:                                               ; preds = %37
  %41 = load i32, ptr @hf_diameter_user_equipment_info_modified_eui64, align 4
  %42 = tail call ptr @proto_tree_add_item(ptr noundef %2, i32 noundef %41, ptr noundef %0, i32 noundef 0, i32 noundef 8, i32 noundef 0)
  br label %45

43:                                               ; preds = %37
  %44 = tail call ptr @proto_tree_add_expert(ptr noundef %2, ptr noundef %1, ptr noundef nonnull @ei_diameter_invalid_user_equipment_info_value_len, ptr noundef %0, i32 noundef 0, i32 noundef %38)
  br label %45

45:                                               ; preds = %4, %19, %27, %35, %43, %40, %32, %24, %15, %12, %9
  %.0 = phi i32 [ 8, %40 ], [ 8, %32 ], [ 6, %24 ], [ 8, %9 ], [ 16, %12 ], [ 15, %15 ], [ 0, %43 ], [ 0, %35 ], [ 0, %27 ], [ 0, %19 ], [ 0, %4 ]
  ret i32 %.0
}